target datalayout = "e-m:e-p270:32:32-p271:32:32-p272:64:64-i64:64-i128:128-f80:128-n8:16:32:64-S128"
target triple = "x86_64-pc-linux-gnu"

%class.BoolNode = type { %class.Node.base, %struct.BoolTest }
%class.Node.base = type <{ ptr, ptr, ptr, i32, i32, i32, i32, i32, i32, i32 }>
%struct.BoolTest = type { i32 }
%class.Node = type <{ ptr, ptr, ptr, i32, i32, i32, i32, i32, i32, i32, [4 x i8] }>
%class.Type.base = type <{ ptr, ptr, i32 }>
%class.TypeInt = type { %class.TypeInteger.base, i32, i32 }
%class.TypeInteger.base = type { %class.Type.base, i16 }

@UseShenandoahGC = external global i8, align 1

; Function Attrs: mustprogress nounwind uwtable
define linkonce_odr hidden noundef i32 @_ZNK7TypeInt7get_conEv(ptr noundef nonnull align 8 dereferenceable(32) %0) #1 comdat align 2 {
  %2 = alloca ptr, align 8
  store ptr %0, ptr %2, align 8
  %3 = load ptr, ptr %2, align 8
  %4 = getelementptr inbounds %class.TypeInt, ptr %3, i32 0, i32 1
  %5 = load i32, ptr %4, align 8
  ret i32 %5
}

; Function Attrs: mustprogress nounwind uwtable
define linkonce_odr hidden noundef zeroext i1 @_ZNK7TypeInt6is_conEv(ptr noundef nonnull align 8 dereferenceable(32) %0) #1 comdat align 2 {
  %2 = alloca ptr, align 8
  store ptr %0, ptr %2, align 8
  %3 = load ptr, ptr %2, align 8
  %4 = getelementptr inbounds %class.TypeInt, ptr %3, i32 0, i32 1
  %5 = load i32, ptr %4, align 8
  %6 = getelementptr inbounds %class.TypeInt, ptr %3, i32 0, i32 2
  %7 = load i32, ptr %6, align 4
  %8 = icmp eq i32 %5, %7
  ret i1 %8
}

; Function Attrs: mustprogress nounwind uwtable
define linkonce_odr hidden noundef i32 @_ZNK4Node12find_int_conEi(ptr noundef nonnull align 8 dereferenceable(52) %0, i32 noundef %1) #1 comdat align 2 {
  %3 = alloca ptr, align 8
  %4 = alloca i32, align 4
  %5 = alloca ptr, align 8
  store ptr %0, ptr %3, align 8
  store i32 %1, ptr %4, align 4
  %6 = load ptr, ptr %3, align 8
  %7 = call noundef ptr @_ZNK4Node13find_int_typeEv(ptr noundef nonnull align 8 dereferenceable(52) %6)
  store ptr %7, ptr %5, align 8
  %8 = load ptr, ptr %5, align 8
  %9 = icmp ne ptr %8, null
  br i1 %9, label %10, label %16

10:                                               ; preds = %2
  %11 = load ptr, ptr %5, align 8
  %12 = call noundef zeroext i1 @_ZNK7TypeInt6is_conEv(ptr noundef nonnull align 8 dereferenceable(32) %11)
  br i1 %12, label %13, label %16

13:                                               ; preds = %10
  %14 = load ptr, ptr %5, align 8
  %15 = call noundef i32 @_ZNK7TypeInt7get_conEv(ptr noundef nonnull align 8 dereferenceable(32) %14)
  br label %18

16:                                               ; preds = %10, %2
  %17 = load i32, ptr %4, align 4
  br label %18

18:                                               ; preds = %16, %13
  %19 = phi i32 [ %15, %13 ], [ %17, %16 ]
  ret i32 %19
}

; Function Attrs: mustprogress nounwind uwtable
define linkonce_odr hidden noundef ptr @_ZNK4Node7as_BoolEv(ptr noundef nonnull align 8 dereferenceable(52) %0) #1 comdat align 2 {
  %2 = alloca ptr, align 8
  store ptr %0, ptr %2, align 8
  %3 = load ptr, ptr %2, align 8
  ret ptr %3
}

; Function Attrs: mustprogress nounwind uwtable
define linkonce_odr hidden noundef zeroext i1 @_ZNK4Node7is_BoolEv(ptr noundef nonnull align 8 dereferenceable(52) %0) #1 comdat align 2 {
  %2 = alloca ptr, align 8
  store ptr %0, ptr %2, align 8
  %3 = load ptr, ptr %2, align 8
  %4 = getelementptr inbounds %class.Node, ptr %3, i32 0, i32 8
  %5 = load i32, ptr %4, align 4
  %6 = and i32 %5, 511
  %7 = icmp eq i32 %6, 256
  ret i1 %7
}

; Function Attrs: mustprogress nounwind uwtable
define linkonce_odr hidden noundef ptr @_ZNK4Node2inEj(ptr noundef nonnull align 8 dereferenceable(52) %0, i32 noundef %1) #1 comdat align 2 {
  %3 = alloca ptr, align 8
  %4 = alloca i32, align 4
  store ptr %0, ptr %3, align 8
  store i32 %1, ptr %4, align 4
  %5 = load ptr, ptr %3, align 8
  %6 = getelementptr inbounds %class.Node, ptr %5, i32 0, i32 1
  %7 = load ptr, ptr %6, align 8
  %8 = load i32, ptr %4, align 4
  %9 = zext i32 %8 to i64
  %10 = getelementptr inbounds ptr, ptr %7, i64 %9
  %11 = load ptr, ptr %10, align 8
  ret ptr %11
}

; Function Attrs: mustprogress nounwind uwtable
define hidden noundef zeroext i1 @_ZN26ShenandoahBarrierC2Support16is_gc_state_testEP4Nodei(ptr noundef %0, i32 noundef %1) #1 align 2 {
  %3 = alloca i1, align 1
  %4 = alloca ptr, align 8
  %5 = alloca i32, align 4
  %6 = alloca ptr, align 8
  %7 = alloca ptr, align 8
  %8 = alloca ptr, align 8
  %9 = alloca ptr, align 8
  store ptr %0, ptr %4, align 8
  store i32 %1, ptr %5, align 4
  %10 = load i8, ptr @UseShenandoahGC, align 1
  %11 = trunc i8 %10 to i1
  br i1 %11, label %13, label %12

12:                                               ; preds = %2
  store i1 false, ptr %3, align 1
  br label %74

13:                                               ; preds = %2
  %14 = load ptr, ptr %4, align 8
  %15 = load ptr, ptr %14, align 8
  %16 = getelementptr inbounds ptr, ptr %15, i64 0
  %17 = load ptr, ptr %16, align 8
  %18 = call noundef i32 %17(ptr noundef nonnull align 8 dereferenceable(52) %14)
  %19 = icmp ne i32 %18, 177
  br i1 %19, label %20, label %21

20:                                               ; preds = %13
  store i1 false, ptr %3, align 1
  br label %74

21:                                               ; preds = %13
  %22 = load ptr, ptr %4, align 8
  %23 = call noundef ptr @_ZNK4Node2inEj(ptr noundef nonnull align 8 dereferenceable(52) %22, i32 noundef 1)
  store ptr %23, ptr %6, align 8
  %24 = load ptr, ptr %6, align 8
  %25 = call noundef zeroext i1 @_ZNK4Node7is_BoolEv(ptr noundef nonnull align 8 dereferenceable(52) %24)
  br i1 %25, label %26, label %33

26:                                               ; preds = %21
  %27 = load ptr, ptr %6, align 8
  %28 = call noundef ptr @_ZNK4Node7as_BoolEv(ptr noundef nonnull align 8 dereferenceable(52) %27)
  %29 = getelementptr inbounds %class.BoolNode, ptr %28, i32 0, i32 1
  %30 = getelementptr inbounds %struct.BoolTest, ptr %29, i32 0, i32 0
  %31 = load i32, ptr %30, align 4
  %32 = icmp ne i32 %31, 4
  br i1 %32, label %33, label %34

33:                                               ; preds = %26, %21
  store i1 false, ptr %3, align 1
  br label %74

34:                                               ; preds = %26
  %35 = load ptr, ptr %6, align 8
  %36 = call noundef ptr @_ZNK4Node2inEj(ptr noundef nonnull align 8 dereferenceable(52) %35, i32 noundef 1)
  store ptr %36, ptr %7, align 8
  %37 = load ptr, ptr %7, align 8
  %38 = load ptr, ptr %37, align 8
  %39 = getelementptr inbounds ptr, ptr %38, i64 0
  %40 = load ptr, ptr %39, align 8
  %41 = call noundef i32 %40(ptr noundef nonnull align 8 dereferenceable(52) %37)
  %42 = icmp ne i32 %41, 81
  br i1 %42, label %43, label %44

43:                                               ; preds = %34
  store i1 false, ptr %3, align 1
  br label %74

44:                                               ; preds = %34
  %45 = load ptr, ptr %7, align 8
  %46 = call noundef ptr @_ZNK4Node2inEj(ptr noundef nonnull align 8 dereferenceable(52) %45, i32 noundef 1)
  store ptr %46, ptr %8, align 8
  %47 = load ptr, ptr %7, align 8
  %48 = call noundef ptr @_ZNK4Node2inEj(ptr noundef nonnull align 8 dereferenceable(52) %47, i32 noundef 2)
  store ptr %48, ptr %9, align 8
  %49 = load ptr, ptr %9, align 8
  %50 = call noundef i32 @_ZNK4Node12find_int_conEi(ptr noundef nonnull align 8 dereferenceable(52) %49, i32 noundef -1)
  %51 = icmp ne i32 %50, 0
  br i1 %51, label %52, label %53

52:                                               ; preds = %44
  store i1 false, ptr %3, align 1
  br label %74

53:                                               ; preds = %44
  %54 = load ptr, ptr %8, align 8
  %55 = load ptr, ptr %54, align 8
  %56 = getelementptr inbounds ptr, ptr %55, i64 0
  %57 = load ptr, ptr %56, align 8
  %58 = call noundef i32 %57(ptr noundef nonnull align 8 dereferenceable(52) %54)
  %59 = icmp ne i32 %58, 28
  br i1 %59, label %60, label %61

60:                                               ; preds = %53
  store i1 false, ptr %3, align 1
  br label %74

61:                                               ; preds = %53
  %62 = load ptr, ptr %8, align 8
  %63 = call noundef ptr @_ZNK4Node2inEj(ptr noundef nonnull align 8 dereferenceable(52) %62, i32 noundef 2)
  store ptr %63, ptr %9, align 8
  %64 = load ptr, ptr %9, align 8
  %65 = call noundef i32 @_ZNK4Node12find_int_conEi(ptr noundef nonnull align 8 dereferenceable(52) %64, i32 noundef -1)
  %66 = load i32, ptr %5, align 4
  %67 = icmp ne i32 %65, %66
  br i1 %67, label %68, label %69

68:                                               ; preds = %61
  store i1 false, ptr %3, align 1
  br label %74

69:                                               ; preds = %61
  %70 = load ptr, ptr %8, align 8
  %71 = call noundef ptr @_ZNK4Node2inEj(ptr noundef nonnull align 8 dereferenceable(52) %70, i32 noundef 1)
  store ptr %71, ptr %8, align 8
  %72 = load ptr, ptr %8, align 8
  %73 = call noundef zeroext i1 @_ZN26ShenandoahBarrierC2Support16is_gc_state_loadEP4Node(ptr noundef %72)
  store i1 %73, ptr %3, align 1
  br label %74

74:                                               ; preds = %69, %68, %60, %52, %43, %33, %20, %12
  %75 = load i1, ptr %3, align 1
  ret i1 %75
}