; Function Attrs: mustprogress nounwind uwtable
define hidden noundef zeroext i1 @_ZN26ShenandoahBarrierC2Support16is_gc_state_testEP4Nodei(ptr noundef %0, i32 noundef %1) local_unnamed_addr #0 align 2 {
  %3 = load i8, ptr @UseShenandoahGC, align 1
  %4 = trunc i8 %3 to i1
  br i1 %4, label %5, label %_ZNK4Node12find_int_conEi.exit.thread

5:                                                ; preds = %2
  %6 = load ptr, ptr %0, align 8
  %7 = load ptr, ptr %6, align 8
  %8 = tail call noundef i32 %7(ptr noundef nonnull align 8 dereferenceable(52) %0) #10
  %.not = icmp eq i32 %8, 177
  br i1 %.not, label %9, label %_ZNK4Node12find_int_conEi.exit.thread

9:                                                ; preds = %5
  %10 = getelementptr inbounds i8, ptr %0, i64 8
  %11 = load ptr, ptr %10, align 8
  %12 = getelementptr inbounds i8, ptr %11, i64 8
  %13 = load ptr, ptr %12, align 8
  %14 = getelementptr inbounds i8, ptr %13, i64 44
  %15 = load i32, ptr %14, align 4
  %16 = and i32 %15, 511
  %17 = icmp eq i32 %16, 256
  br i1 %17, label %18, label %_ZNK4Node12find_int_conEi.exit.thread

18:                                               ; preds = %9
  %19 = getelementptr inbounds i8, ptr %13, i64 52
  %20 = load i32, ptr %19, align 4
  %.not15 = icmp eq i32 %20, 4
  br i1 %.not15, label %21, label %_ZNK4Node12find_int_conEi.exit.thread

21:                                               ; preds = %18
  %22 = getelementptr inbounds i8, ptr %13, i64 8
  %23 = load ptr, ptr %22, align 8
  %24 = getelementptr inbounds i8, ptr %23, i64 8
  %25 = load ptr, ptr %24, align 8
  %26 = load ptr, ptr %25, align 8
  %27 = load ptr, ptr %26, align 8
  %28 = tail call noundef i32 %27(ptr noundef nonnull align 8 dereferenceable(52) %25) #10
  %.not16 = icmp eq i32 %28, 81
  br i1 %.not16, label %29, label %_ZNK4Node12find_int_conEi.exit.thread

29:                                               ; preds = %21
  %30 = getelementptr inbounds i8, ptr %25, i64 8
  %31 = load ptr, ptr %30, align 8
  %32 = getelementptr inbounds i8, ptr %31, i64 8
  %33 = load ptr, ptr %32, align 8
  %34 = getelementptr inbounds i8, ptr %31, i64 16
  %35 = load ptr, ptr %34, align 8
  %36 = tail call noundef ptr @_ZNK4Node13find_int_typeEv(ptr noundef nonnull align 8 dereferenceable(52) %35) #10
  %.not.i = icmp eq ptr %36, null
  br i1 %.not.i, label %_ZNK4Node12find_int_conEi.exit.thread, label %37

37:                                               ; preds = %29
  %38 = getelementptr inbounds i8, ptr %36, i64 24
  %39 = load i32, ptr %38, align 8
  %40 = getelementptr inbounds i8, ptr %36, i64 28
  %41 = load i32, ptr %40, align 4
  %42 = or i32 %41, %39
  %or.cond = icmp eq i32 %42, 0
  br i1 %or.cond, label %43, label %_ZNK4Node12find_int_conEi.exit.thread

43:                                               ; preds = %37
  %44 = load ptr, ptr %33, align 8
  %45 = load ptr, ptr %44, align 8
  %46 = tail call noundef i32 %45(ptr noundef nonnull align 8 dereferenceable(52) %33) #10
  %.not18 = icmp eq i32 %46, 28
  br i1 %.not18, label %47, label %_ZNK4Node12find_int_conEi.exit.thread

47:                                               ; preds = %43
  %48 = getelementptr inbounds i8, ptr %33, i64 8
  %49 = load ptr, ptr %48, align 8
  %50 = getelementptr inbounds i8, ptr %49, i64 16
  %51 = load ptr, ptr %50, align 8
  %52 = tail call noundef ptr @_ZNK4Node13find_int_typeEv(ptr noundef nonnull align 8 dereferenceable(52) %51) #10
  %.not.i20 = icmp eq ptr %52, null
  br i1 %.not.i20, label %_ZNK4Node12find_int_conEi.exit22, label %53

53:                                               ; preds = %47
  %54 = getelementptr inbounds i8, ptr %52, i64 24
  %55 = load i32, ptr %54, align 8
  %56 = getelementptr inbounds i8, ptr %52, i64 28
  %57 = load i32, ptr %56, align 4
  %58 = icmp eq i32 %55, %57
  %spec.select.i21 = select i1 %58, i32 %55, i32 -1
  br label %_ZNK4Node12find_int_conEi.exit22

_ZNK4Node12find_int_conEi.exit22:                 ; preds = %47, %53
  %59 = phi i32 [ -1, %47 ], [ %spec.select.i21, %53 ]
  %.not19 = icmp eq i32 %59, %1
  br i1 %.not19, label %60, label %_ZNK4Node12find_int_conEi.exit.thread

60:                                               ; preds = %_ZNK4Node12find_int_conEi.exit22
  %61 = load ptr, ptr %48, align 8
  %62 = getelementptr inbounds i8, ptr %61, i64 8
  %63 = load ptr, ptr %62, align 8
  %64 = tail call noundef zeroext i1 @_ZN26ShenandoahBarrierC2Support16is_gc_state_loadEP4Node(ptr noundef %63)
  br label %_ZNK4Node12find_int_conEi.exit.thread

_ZNK4Node12find_int_conEi.exit.thread:            ; preds = %37, %29, %_ZNK4Node12find_int_conEi.exit22, %43, %21, %9, %18, %5, %2, %60
  %.0 = phi i1 [ %64, %60 ], [ false, %2 ], [ false, %5 ], [ false, %18 ], [ false, %9 ], [ false, %21 ], [ false, %43 ], [ false, %_ZNK4Node12find_int_conEi.exit22 ], [ false, %29 ], [ false, %37 ]
  ret i1 %.0
}